target datalayout = "e-m:e-p270:32:32-p271:32:32-p272:64:64-i64:64-i128:128-f80:128-n8:16:32:64-S128"
target triple = "x86_64-pc-linux-gnu"

%struct._object = type { %union.anon, ptr }
%union.anon = type { i64 }
%struct.PyVarObject = type { %struct._object, i64 }
%struct.arraydescr = type { i8, i32, ptr, ptr, ptr, ptr, i32, i32 }
%struct.arrayobject = type { %struct.PyVarObject, ptr, i64, ptr, ptr, i64 }

@PyExc_IndexError = external global ptr, align 8
@.str.128 = private unnamed_addr constant [25 x i8] c"array index out of range\00", align 1

; Function Attrs: nounwind uwtable
define internal ptr @getarrayitem(ptr noundef %0, i64 noundef %1) #0 {
  %3 = alloca ptr, align 8
  %4 = alloca i64, align 8
  %5 = alloca ptr, align 8
  store ptr %0, ptr %3, align 8, !tbaa !3
  store i64 %1, ptr %4, align 8, !tbaa !21
  call void @llvm.lifetime.start.p0(i64 8, ptr %5) #8
  %6 = load ptr, ptr %3, align 8, !tbaa !3
  store ptr %6, ptr %5, align 8, !tbaa !68
  %7 = load ptr, ptr %5, align 8, !tbaa !68
  %8 = getelementptr inbounds nuw %struct.arrayobject, ptr %7, i32 0, i32 3
  %9 = load ptr, ptr %8, align 8, !tbaa !99
  %10 = getelementptr inbounds nuw %struct.arraydescr, ptr %9, i32 0, i32 2
  %11 = load ptr, ptr %10, align 8, !tbaa !124
  %12 = load ptr, ptr %5, align 8, !tbaa !68
  %13 = load i64, ptr %4, align 8, !tbaa !21
  %14 = call ptr %11(ptr noundef %12, i64 noundef %13)
  call void @llvm.lifetime.end.p0(i64 8, ptr %5) #8
  ret ptr %14
}

; Function Attrs: inlinehint nounwind uwtable
define internal i64 @Py_SIZE(ptr noundef %0) #3 {
  %2 = alloca ptr, align 8
  store ptr %0, ptr %2, align 8, !tbaa !3
  %3 = load ptr, ptr %2, align 8, !tbaa !3
  %4 = getelementptr inbounds nuw %struct.PyVarObject, ptr %3, i32 0, i32 1
  %5 = load i64, ptr %4, align 8, !tbaa !62
  ret i64 %5
}

; Function Attrs: nounwind uwtable
define internal ptr @array_item(ptr noundef %0, i64 noundef %1) #0 {
  %3 = alloca ptr, align 8
  %4 = alloca ptr, align 8
  %5 = alloca i64, align 8
  store ptr %0, ptr %4, align 8, !tbaa !68
  store i64 %1, ptr %5, align 8, !tbaa !21
  %6 = load i64, ptr %5, align 8, !tbaa !21
  %7 = icmp slt i64 %6, 0
  br i1 %7, label %13, label %8

8:                                                ; preds = %2
  %9 = load i64, ptr %5, align 8, !tbaa !21
  %10 = load ptr, ptr %4, align 8, !tbaa !68
  %11 = call i64 @Py_SIZE(ptr noundef %10)
  %12 = icmp sge i64 %9, %11
  br i1 %12, label %13, label %15

13:                                               ; preds = %8, %2
  %14 = load ptr, ptr @PyExc_IndexError, align 8, !tbaa !3
  call void @PyErr_SetString(ptr noundef %14, ptr noundef @.str.128)
  store ptr null, ptr %3, align 8
  br label %19

15:                                               ; preds = %8
  %16 = load ptr, ptr %4, align 8, !tbaa !68
  %17 = load i64, ptr %5, align 8, !tbaa !21
  %18 = call ptr @getarrayitem(ptr noundef %16, i64 noundef %17)
  store ptr %18, ptr %3, align 8
  br label %19

19:                                               ; preds = %15, %13
  %20 = load ptr, ptr %3, align 8
  ret ptr %20
}