; Function Attrs: nounwind uwtable
define internal ptr @array_item(ptr noundef %0, i64 noundef %1) #0 {
  %3 = icmp slt i64 %1, 0
  br i1 %3, label %6, label %4

4:                                                ; preds = %2
  %5 = getelementptr i8, ptr %0, i64 16
  %.val = load i64, ptr %5, align 8, !tbaa !40
  %.not = icmp slt i64 %1, %.val
  br i1 %.not, label %8, label %6

6:                                                ; preds = %4, %2
  %7 = load ptr, ptr @PyExc_IndexError, align 8, !tbaa !18
  tail call void @PyErr_SetString(ptr noundef %7, ptr noundef nonnull @.str.128) #11
  br label %14

8:                                                ; preds = %4
  %9 = getelementptr inbounds nuw i8, ptr %0, i64 40
  %10 = load ptr, ptr %9, align 8, !tbaa !76
  %11 = getelementptr inbounds nuw i8, ptr %10, i64 8
  %12 = load ptr, ptr %11, align 8, !tbaa !97
  %13 = tail call ptr %12(ptr noundef nonnull %0, i64 noundef %1) #11
  br label %14

14:                                               ; preds = %8, %6
  %.0 = phi ptr [ null, %6 ], [ %13, %8 ]
  ret ptr %.0
}